; Function Attrs: mustprogress nounwind uwtable
define internal fastcc void @_ZN8nlohmann16json_abi_v3_11_310basic_jsonISt3mapSt6vectorNSt7__cxx1112basic_stringIcSt11char_traitsIcESaIcEEEblmdN12_GLOBAL__N_112my_allocatorENS0_14adl_serializerES3_IhSaIhEEvED2Ev(ptr nocapture noundef nonnull readonly align 8 dereferenceable(16) %this) unnamed_addr #4 align 2 personality ptr @__gxx_personality_v0 {
entry:
  %m_value.i = getelementptr inbounds i8, ptr %this, i64 8
  %0 = load i8, ptr %this, align 8
  invoke fastcc void @_ZN8nlohmann16json_abi_v3_11_310basic_jsonISt3mapSt6vectorNSt7__cxx1112basic_stringIcSt11char_traitsIcESaIcEEEblmdN12_GLOBAL__N_112my_allocatorENS0_14adl_serializerES3_IhSaIhEEvE10json_value7destroyENS0_6detail7value_tE(ptr noundef nonnull align 8 dereferenceable(8) %m_value.i, i8 noundef zeroext %0)
          to label %_ZN8nlohmann16json_abi_v3_11_310basic_jsonISt3mapSt6vectorNSt7__cxx1112basic_stringIcSt11char_traitsIcESaIcEEEblmdN12_GLOBAL__N_112my_allocatorENS0_14adl_serializerES3_IhSaIhEEvE4dataD2Ev.exit unwind label %terminate.lpad.i

terminate.lpad.i:                                 ; preds = %entry
  %1 = landingpad { ptr, i32 }
          catch ptr null
  %2 = extractvalue { ptr, i32 } %1, 0
  tail call void @__clang_call_terminate(ptr %2) #19
  unreachable

_ZN8nlohmann16json_abi_v3_11_310basic_jsonISt3mapSt6vectorNSt7__cxx1112basic_stringIcSt11char_traitsIcESaIcEEEblmdN12_GLOBAL__N_112my_allocatorENS0_14adl_serializerES3_IhSaIhEEvE4dataD2Ev.exit: ; preds = %entry
  ret void
}